target datalayout = "e-m:e-p270:32:32-p271:32:32-p272:64:64-i64:64-i128:128-f80:128-n8:16:32:64-S128"
target triple = "x86_64-unknown-linux-gnu"

%"struct.facebook::velox::common::SpillStats" = type { i64, i64, i64, i64, i32, i64, i64, i64, i64, i64, i64, i64, i64 }

; Function Attrs: mustprogress nounwind uwtable
define void @_ZN8facebook5velox6common10SpillStatsC2Emmmmjmmmmmmmm(ptr noundef nonnull align 8 dereferenceable(104) %this, i64 noundef %_spillRuns, i64 noundef %_spilledInputBytes, i64 noundef %_spilledBytes, i64 noundef %_spilledRows, i32 noundef %_spilledPartitions, i64 noundef %_spilledFiles, i64 noundef %_spillFillTimeUs, i64 noundef %_spillSortTimeUs, i64 noundef %_spillSerializationTimeUs, i64 noundef %_spillDiskWrites, i64 noundef %_spillFlushTimeUs, i64 noundef %_spillWriteTimeUs, i64 noundef %_spillMaxLevelExceededCount) unnamed_addr #0 align 2 {
entry:
  %this.addr = alloca ptr, align 8
  %_spillRuns.addr = alloca i64, align 8
  %_spilledInputBytes.addr = alloca i64, align 8
  %_spilledBytes.addr = alloca i64, align 8
  %_spilledRows.addr = alloca i64, align 8
  %_spilledPartitions.addr = alloca i32, align 4
  %_spilledFiles.addr = alloca i64, align 8
  %_spillFillTimeUs.addr = alloca i64, align 8
  %_spillSortTimeUs.addr = alloca i64, align 8
  %_spillSerializationTimeUs.addr = alloca i64, align 8
  %_spillDiskWrites.addr = alloca i64, align 8
  %_spillFlushTimeUs.addr = alloca i64, align 8
  %_spillWriteTimeUs.addr = alloca i64, align 8
  %_spillMaxLevelExceededCount.addr = alloca i64, align 8
  store ptr %this, ptr %this.addr, align 8
  store i64 %_spillRuns, ptr %_spillRuns.addr, align 8
  store i64 %_spilledInputBytes, ptr %_spilledInputBytes.addr, align 8
  store i64 %_spilledBytes, ptr %_spilledBytes.addr, align 8
  store i64 %_spilledRows, ptr %_spilledRows.addr, align 8
  store i32 %_spilledPartitions, ptr %_spilledPartitions.addr, align 4
  store i64 %_spilledFiles, ptr %_spilledFiles.addr, align 8
  store i64 %_spillFillTimeUs, ptr %_spillFillTimeUs.addr, align 8
  store i64 %_spillSortTimeUs, ptr %_spillSortTimeUs.addr, align 8
  store i64 %_spillSerializationTimeUs, ptr %_spillSerializationTimeUs.addr, align 8
  store i64 %_spillDiskWrites, ptr %_spillDiskWrites.addr, align 8
  store i64 %_spillFlushTimeUs, ptr %_spillFlushTimeUs.addr, align 8
  store i64 %_spillWriteTimeUs, ptr %_spillWriteTimeUs.addr, align 8
  store i64 %_spillMaxLevelExceededCount, ptr %_spillMaxLevelExceededCount.addr, align 8
  %this1 = load ptr, ptr %this.addr, align 8
  %spillRuns = getelementptr inbounds %"struct.facebook::velox::common::SpillStats", ptr %this1, i32 0, i32 0
  %0 = load i64, ptr %_spillRuns.addr, align 8
  store i64 %0, ptr %spillRuns, align 8
  %spilledInputBytes = getelementptr inbounds %"struct.facebook::velox::common::SpillStats", ptr %this1, i32 0, i32 1
  %1 = load i64, ptr %_spilledInputBytes.addr, align 8
  store i64 %1, ptr %spilledInputBytes, align 8
  %spilledBytes = getelementptr inbounds %"struct.facebook::velox::common::SpillStats", ptr %this1, i32 0, i32 2
  %2 = load i64, ptr %_spilledBytes.addr, align 8
  store i64 %2, ptr %spilledBytes, align 8
  %spilledRows = getelementptr inbounds %"struct.facebook::velox::common::SpillStats", ptr %this1, i32 0, i32 3
  %3 = load i64, ptr %_spilledRows.addr, align 8
  store i64 %3, ptr %spilledRows, align 8
  %spilledPartitions = getelementptr inbounds %"struct.facebook::velox::common::SpillStats", ptr %this1, i32 0, i32 4
  %4 = load i32, ptr %_spilledPartitions.addr, align 4
  store i32 %4, ptr %spilledPartitions, align 8
  %spilledFiles = getelementptr inbounds %"struct.facebook::velox::common::SpillStats", ptr %this1, i32 0, i32 5
  %5 = load i64, ptr %_spilledFiles.addr, align 8
  store i64 %5, ptr %spilledFiles, align 8
  %spillFillTimeUs = getelementptr inbounds %"struct.facebook::velox::common::SpillStats", ptr %this1, i32 0, i32 6
  %6 = load i64, ptr %_spillFillTimeUs.addr, align 8
  store i64 %6, ptr %spillFillTimeUs, align 8
  %spillSortTimeUs = getelementptr inbounds %"struct.facebook::velox::common::SpillStats", ptr %this1, i32 0, i32 7
  %7 = load i64, ptr %_spillSortTimeUs.addr, align 8
  store i64 %7, ptr %spillSortTimeUs, align 8
  %spillSerializationTimeUs = getelementptr inbounds %"struct.facebook::velox::common::SpillStats", ptr %this1, i32 0, i32 8
  %8 = load i64, ptr %_spillSerializationTimeUs.addr, align 8
  store i64 %8, ptr %spillSerializationTimeUs, align 8
  %spillDiskWrites = getelementptr inbounds %"struct.facebook::velox::common::SpillStats", ptr %this1, i32 0, i32 9
  %9 = load i64, ptr %_spillDiskWrites.addr, align 8
  store i64 %9, ptr %spillDiskWrites, align 8
  %spillFlushTimeUs = getelementptr inbounds %"struct.facebook::velox::common::SpillStats", ptr %this1, i32 0, i32 10
  %10 = load i64, ptr %_spillFlushTimeUs.addr, align 8
  store i64 %10, ptr %spillFlushTimeUs, align 8
  %spillWriteTimeUs = getelementptr inbounds %"struct.facebook::velox::common::SpillStats", ptr %this1, i32 0, i32 11
  %11 = load i64, ptr %_spillWriteTimeUs.addr, align 8
  store i64 %11, ptr %spillWriteTimeUs, align 8
  %spillMaxLevelExceededCount = getelementptr inbounds %"struct.facebook::velox::common::SpillStats", ptr %this1, i32 0, i32 12
  %12 = load i64, ptr %_spillMaxLevelExceededCount.addr, align 8
  store i64 %12, ptr %spillMaxLevelExceededCount, align 8
  ret void
}