; Function Attrs: mustprogress nofree norecurse nosync nounwind willreturn memory(argmem: write) uwtable
define void @_ZN8facebook5velox6common10SpillStatsC2Emmmmjmmmmmmmm(ptr nocapture noundef nonnull writeonly align 8 dereferenceable(104) %this, i64 noundef %_spillRuns, i64 noundef %_spilledInputBytes, i64 noundef %_spilledBytes, i64 noundef %_spilledRows, i32 noundef %_spilledPartitions, i64 noundef %_spilledFiles, i64 noundef %_spillFillTimeUs, i64 noundef %_spillSortTimeUs, i64 noundef %_spillSerializationTimeUs, i64 noundef %_spillDiskWrites, i64 noundef %_spillFlushTimeUs, i64 noundef %_spillWriteTimeUs, i64 noundef %_spillMaxLevelExceededCount) unnamed_addr #0 align 2 {
entry:
  store i64 %_spillRuns, ptr %this, align 8
  %spilledInputBytes = getelementptr inbounds i8, ptr %this, i64 8
  store i64 %_spilledInputBytes, ptr %spilledInputBytes, align 8
  %spilledBytes = getelementptr inbounds i8, ptr %this, i64 16
  store i64 %_spilledBytes, ptr %spilledBytes, align 8
  %spilledRows = getelementptr inbounds i8, ptr %this, i64 24
  store i64 %_spilledRows, ptr %spilledRows, align 8
  %spilledPartitions = getelementptr inbounds i8, ptr %this, i64 32
  store i32 %_spilledPartitions, ptr %spilledPartitions, align 8
  %spilledFiles = getelementptr inbounds i8, ptr %this, i64 40
  store i64 %_spilledFiles, ptr %spilledFiles, align 8
  %spillFillTimeUs = getelementptr inbounds i8, ptr %this, i64 48
  store i64 %_spillFillTimeUs, ptr %spillFillTimeUs, align 8
  %spillSortTimeUs = getelementptr inbounds i8, ptr %this, i64 56
  store i64 %_spillSortTimeUs, ptr %spillSortTimeUs, align 8
  %spillSerializationTimeUs = getelementptr inbounds i8, ptr %this, i64 64
  store i64 %_spillSerializationTimeUs, ptr %spillSerializationTimeUs, align 8
  %spillDiskWrites = getelementptr inbounds i8, ptr %this, i64 72
  store i64 %_spillDiskWrites, ptr %spillDiskWrites, align 8
  %spillFlushTimeUs = getelementptr inbounds i8, ptr %this, i64 80
  store i64 %_spillFlushTimeUs, ptr %spillFlushTimeUs, align 8
  %spillWriteTimeUs = getelementptr inbounds i8, ptr %this, i64 88
  store i64 %_spillWriteTimeUs, ptr %spillWriteTimeUs, align 8
  %spillMaxLevelExceededCount = getelementptr inbounds i8, ptr %this, i64 96
  store i64 %_spillMaxLevelExceededCount, ptr %spillMaxLevelExceededCount, align 8
  ret void
}